target datalayout = "e-m:e-p270:32:32-p271:32:32-p272:64:64-i64:64-i128:128-f80:128-n8:16:32:64-S128"
target triple = "x86_64-pc-linux-gnu"

%"class.LIEF::MachO::FilesetCommand" = type { %"class.LIEF::MachO::LoadCommand", %"class.std::__cxx11::basic_string", i64, i64, ptr }
%"class.LIEF::MachO::LoadCommand" = type { %"class.LIEF::Object", %"class.std::vector", i64, i32, i64 }
%"class.LIEF::Object" = type { ptr }
%"class.std::vector" = type { %"struct.std::_Vector_base" }
%"struct.std::_Vector_base" = type { %"struct.std::_Vector_base<unsigned char, std::allocator<unsigned char>>::_Vector_impl" }
%"struct.std::_Vector_base<unsigned char, std::allocator<unsigned char>>::_Vector_impl" = type { %"struct.std::_Vector_base<unsigned char, std::allocator<unsigned char>>::_Vector_impl_data" }
%"struct.std::_Vector_base<unsigned char, std::allocator<unsigned char>>::_Vector_impl_data" = type { ptr, ptr, ptr }
%"class.std::__cxx11::basic_string" = type { %"struct.std::__cxx11::basic_string<char>::_Alloc_hider", i64, %union.anon }
%"struct.std::__cxx11::basic_string<char>::_Alloc_hider" = type { ptr }
%union.anon = type { i64, [8 x i8] }

; Function Attrs: mustprogress nounwind uwtable
define linkonce_odr void @_ZSt4swapImENSt9enable_ifIXsr6__and_ISt6__not_ISt15__is_tuple_likeIT_EESt21is_move_constructibleIS3_ESt18is_move_assignableIS3_EEE5valueEvE4typeERS3_SC_(ptr noundef nonnull align 8 dereferenceable(8) %0, ptr noundef nonnull align 8 dereferenceable(8) %1) #3 comdat {
  %3 = alloca ptr, align 8
  %4 = alloca ptr, align 8
  %5 = alloca i64, align 8
  store ptr %0, ptr %3, align 8
  store ptr %1, ptr %4, align 8
  %6 = load ptr, ptr %3, align 8
  %7 = load i64, ptr %6, align 8
  store i64 %7, ptr %5, align 8
  %8 = load ptr, ptr %4, align 8
  %9 = load i64, ptr %8, align 8
  %10 = load ptr, ptr %3, align 8
  store i64 %9, ptr %10, align 8
  %11 = load i64, ptr %5, align 8
  %12 = load ptr, ptr %4, align 8
  store i64 %11, ptr %12, align 8
  ret void
}

; Function Attrs: mustprogress uwtable
define void @_ZN4LIEF5MachO14FilesetCommand4swapERS1_(ptr noundef nonnull align 8 dereferenceable(112) %0, ptr noundef nonnull align 8 dereferenceable(112) %1) #0 align 2 {
  %3 = alloca ptr, align 8
  %4 = alloca ptr, align 8
  store ptr %0, ptr %3, align 8
  store ptr %1, ptr %4, align 8
  %5 = load ptr, ptr %3, align 8
  %6 = load ptr, ptr %4, align 8
  call void @_ZN4LIEF5MachO11LoadCommand4swapERS1_(ptr noundef nonnull align 8 dereferenceable(56) %5, ptr noundef nonnull align 8 dereferenceable(56) %6)
  %7 = getelementptr inbounds %"class.LIEF::MachO::FilesetCommand", ptr %5, i32 0, i32 2
  %8 = load ptr, ptr %4, align 8
  %9 = getelementptr inbounds %"class.LIEF::MachO::FilesetCommand", ptr %8, i32 0, i32 2
  call void @_ZSt4swapImENSt9enable_ifIXsr6__and_ISt6__not_ISt15__is_tuple_likeIT_EESt21is_move_constructibleIS3_ESt18is_move_assignableIS3_EEE5valueEvE4typeERS3_SC_(ptr noundef nonnull align 8 dereferenceable(8) %7, ptr noundef nonnull align 8 dereferenceable(8) %9) #6
  %10 = getelementptr inbounds %"class.LIEF::MachO::FilesetCommand", ptr %5, i32 0, i32 3
  %11 = load ptr, ptr %4, align 8
  %12 = getelementptr inbounds %"class.LIEF::MachO::FilesetCommand", ptr %11, i32 0, i32 3
  call void @_ZSt4swapImENSt9enable_ifIXsr6__and_ISt6__not_ISt15__is_tuple_likeIT_EESt21is_move_constructibleIS3_ESt18is_move_assignableIS3_EEE5valueEvE4typeERS3_SC_(ptr noundef nonnull align 8 dereferenceable(8) %10, ptr noundef nonnull align 8 dereferenceable(8) %12) #6
  ret void
}