; Function Attrs: mustprogress uwtable
define void @_ZN4LIEF5MachO14FilesetCommand4swapERS1_(ptr noundef nonnull align 8 dereferenceable(112) %0, ptr noundef nonnull align 8 dereferenceable(112) %1) local_unnamed_addr #0 align 2 {
  tail call void @_ZN4LIEF5MachO11LoadCommand4swapERS1_(ptr noundef nonnull align 8 dereferenceable(56) %0, ptr noundef nonnull align 8 dereferenceable(56) %1)
  %3 = getelementptr inbounds i8, ptr %0, i64 88
  %4 = getelementptr inbounds i8, ptr %1, i64 88
  %5 = load i64, ptr %3, align 8
  %6 = load i64, ptr %4, align 8
  store i64 %6, ptr %3, align 8
  store i64 %5, ptr %4, align 8
  %7 = getelementptr inbounds i8, ptr %0, i64 96
  %8 = getelementptr inbounds i8, ptr %1, i64 96
  %9 = load i64, ptr %7, align 8
  %10 = load i64, ptr %8, align 8
  store i64 %10, ptr %7, align 8
  store i64 %9, ptr %8, align 8
  ret void
}